ccopy_reg
_reconstructor
p0
(csources.aaa
Contract
p1
c__builtin__
object
p2
Ntp3
Rp4
(dp5
S'a'
p6
V10202020202020202020202020202020202020202020202020205050505050305000050000500005000050000500005050505050000500005005050
p7
sS'b'
p8
V30
p9
sb.